target datalayout = "e-m:e-p270:32:32-p271:32:32-p272:64:64-i64:64-i128:128-f80:128-n8:16:32:64-S128"
target triple = "x86_64-pc-linux-gnu"

%class.tsi_t = type { %class.htif_t, %class.context_t, ptr, %"class.std::deque.36", %"class.std::deque.36" }
%class.htif_t = type { %class.chunked_memif_t, i32, i64, %class.memif_t, i64, i8, %"class.std::vector", %"class.std::vector", %"class.std::__cxx11::basic_string", i32, i64, i64, i64, i64, %"class.std::optional", i8, %class.device_list_t, %class.syscall_t, %class.bcd_t, %"class.std::vector.3", %"class.std::vector", %"class.std::vector", %"class.std::map" }
%class.chunked_memif_t = type { ptr }
%class.memif_t = type { ptr, ptr }
%"class.std::__cxx11::basic_string" = type { %"struct.std::__cxx11::basic_string<char>::_Alloc_hider", i64, %union.anon }
%"struct.std::__cxx11::basic_string<char>::_Alloc_hider" = type { ptr }
%union.anon = type { i64, [8 x i8] }
%"class.std::optional" = type { %"struct.std::_Optional_base" }
%"struct.std::_Optional_base" = type { %"struct.std::_Optional_payload" }
%"struct.std::_Optional_payload" = type { %"struct.std::_Optional_payload_base.base", [3 x i8] }
%"struct.std::_Optional_payload_base.base" = type <{ %"union.std::_Optional_payload_base<int>::_Storage", i8 }>
%"union.std::_Optional_payload_base<int>::_Storage" = type { i32 }
%class.device_list_t = type { %"class.std::vector.3", %class.null_device_t, i64 }
%class.null_device_t = type { %class.device_t }
%class.device_t = type { ptr, %"class.std::vector.8", %"class.std::vector" }
%"class.std::vector.8" = type { %"struct.std::_Vector_base.9" }
%"struct.std::_Vector_base.9" = type { %"struct.std::_Vector_base<std::function<void (command_t)>, std::allocator<std::function<void (command_t)>>>::_Vector_impl" }
%"struct.std::_Vector_base<std::function<void (command_t)>, std::allocator<std::function<void (command_t)>>>::_Vector_impl" = type { %"struct.std::_Vector_base<std::function<void (command_t)>, std::allocator<std::function<void (command_t)>>>::_Vector_impl_data" }
%"struct.std::_Vector_base<std::function<void (command_t)>, std::allocator<std::function<void (command_t)>>>::_Vector_impl_data" = type { ptr, ptr, ptr }
%class.syscall_t = type { %class.device_t, ptr, ptr, %"class.std::vector.13", %class.fds_t, %"class.std::vector.23", %"class.std::__cxx11::basic_string" }
%"class.std::vector.13" = type { %"struct.std::_Vector_base.14" }
%"struct.std::_Vector_base.14" = type { %"struct.std::_Vector_base<unsigned long (syscall_t::*)(unsigned long, unsigned long, unsigned long, unsigned long, unsigned long, unsigned long, unsigned long), std::allocator<unsigned long (syscall_t::*)(unsigned long, unsigned long, unsigned long, unsigned long, unsigned long, unsigned long, unsigned long)>>::_Vector_impl" }
%"struct.std::_Vector_base<unsigned long (syscall_t::*)(unsigned long, unsigned long, unsigned long, unsigned long, unsigned long, unsigned long, unsigned long), std::allocator<unsigned long (syscall_t::*)(unsigned long, unsigned long, unsigned long, unsigned long, unsigned long, unsigned long, unsigned long)>>::_Vector_impl" = type { %"struct.std::_Vector_base<unsigned long (syscall_t::*)(unsigned long, unsigned long, unsigned long, unsigned long, unsigned long, unsigned long, unsigned long), std::allocator<unsigned long (syscall_t::*)(unsigned long, unsigned long, unsigned long, unsigned long, unsigned long, unsigned long, unsigned long)>>::_Vector_impl_data" }
%"struct.std::_Vector_base<unsigned long (syscall_t::*)(unsigned long, unsigned long, unsigned long, unsigned long, unsigned long, unsigned long, unsigned long), std::allocator<unsigned long (syscall_t::*)(unsigned long, unsigned long, unsigned long, unsigned long, unsigned long, unsigned long, unsigned long)>>::_Vector_impl_data" = type { ptr, ptr, ptr }
%class.fds_t = type { %"class.std::vector.18" }
%"class.std::vector.18" = type { %"struct.std::_Vector_base.19" }
%"struct.std::_Vector_base.19" = type { %"struct.std::_Vector_base<int, std::allocator<int>>::_Vector_impl" }
%"struct.std::_Vector_base<int, std::allocator<int>>::_Vector_impl" = type { %"struct.std::_Vector_base<int, std::allocator<int>>::_Vector_impl_data" }
%"struct.std::_Vector_base<int, std::allocator<int>>::_Vector_impl_data" = type { ptr, ptr, ptr }
%"class.std::vector.23" = type { %"struct.std::_Vector_base.24" }
%"struct.std::_Vector_base.24" = type { %"struct.std::_Vector_base<unsigned long, std::allocator<unsigned long>>::_Vector_impl" }
%"struct.std::_Vector_base<unsigned long, std::allocator<unsigned long>>::_Vector_impl" = type { %"struct.std::_Vector_base<unsigned long, std::allocator<unsigned long>>::_Vector_impl_data" }
%"struct.std::_Vector_base<unsigned long, std::allocator<unsigned long>>::_Vector_impl_data" = type { ptr, ptr, ptr }
%class.bcd_t = type { %class.device_t, %"class.std::queue" }
%"class.std::queue" = type { %"class.std::deque" }
%"class.std::deque" = type { %"class.std::_Deque_base" }
%"class.std::_Deque_base" = type { %"struct.std::_Deque_base<command_t, std::allocator<command_t>>::_Deque_impl" }
%"struct.std::_Deque_base<command_t, std::allocator<command_t>>::_Deque_impl" = type { %"struct.std::_Deque_base<command_t, std::allocator<command_t>>::_Deque_impl_data" }
%"struct.std::_Deque_base<command_t, std::allocator<command_t>>::_Deque_impl_data" = type { ptr, i64, %"struct.std::_Deque_iterator", %"struct.std::_Deque_iterator" }
%"struct.std::_Deque_iterator" = type { ptr, ptr, ptr, ptr }
%"class.std::vector.3" = type { %"struct.std::_Vector_base.4" }
%"struct.std::_Vector_base.4" = type { %"struct.std::_Vector_base<device_t *, std::allocator<device_t *>>::_Vector_impl" }
%"struct.std::_Vector_base<device_t *, std::allocator<device_t *>>::_Vector_impl" = type { %"struct.std::_Vector_base<device_t *, std::allocator<device_t *>>::_Vector_impl_data" }
%"struct.std::_Vector_base<device_t *, std::allocator<device_t *>>::_Vector_impl_data" = type { ptr, ptr, ptr }
%"class.std::vector" = type { %"struct.std::_Vector_base" }
%"struct.std::_Vector_base" = type { %"struct.std::_Vector_base<std::__cxx11::basic_string<char>, std::allocator<std::__cxx11::basic_string<char>>>::_Vector_impl" }
%"struct.std::_Vector_base<std::__cxx11::basic_string<char>, std::allocator<std::__cxx11::basic_string<char>>>::_Vector_impl" = type { %"struct.std::_Vector_base<std::__cxx11::basic_string<char>, std::allocator<std::__cxx11::basic_string<char>>>::_Vector_impl_data" }
%"struct.std::_Vector_base<std::__cxx11::basic_string<char>, std::allocator<std::__cxx11::basic_string<char>>>::_Vector_impl_data" = type { ptr, ptr, ptr }
%"class.std::map" = type { %"class.std::_Rb_tree" }
%"class.std::_Rb_tree" = type { %"struct.std::_Rb_tree<unsigned long, std::pair<const unsigned long, std::__cxx11::basic_string<char>>, std::_Select1st<std::pair<const unsigned long, std::__cxx11::basic_string<char>>>, std::less<unsigned long>>::_Rb_tree_impl" }
%"struct.std::_Rb_tree<unsigned long, std::pair<const unsigned long, std::__cxx11::basic_string<char>>, std::_Select1st<std::pair<const unsigned long, std::__cxx11::basic_string<char>>>, std::less<unsigned long>>::_Rb_tree_impl" = type { [8 x i8], %"struct.std::_Rb_tree_header" }
%"struct.std::_Rb_tree_header" = type { %"struct.std::_Rb_tree_node_base", i64 }
%"struct.std::_Rb_tree_node_base" = type { i32, ptr, ptr, ptr }
%class.context_t = type { ptr, ptr, ptr, %"class.std::unique_ptr" }
%"class.std::unique_ptr" = type { %"struct.std::__uniq_ptr_data" }
%"struct.std::__uniq_ptr_data" = type { %"class.std::__uniq_ptr_impl" }
%"class.std::__uniq_ptr_impl" = type { %"class.std::tuple" }
%"class.std::tuple" = type { %"struct.std::_Tuple_impl" }
%"struct.std::_Tuple_impl" = type { %"struct.std::_Head_base.35" }
%"struct.std::_Head_base.35" = type { ptr }
%"class.std::deque.36" = type { %"class.std::_Deque_base.37" }
%"class.std::_Deque_base.37" = type { %"struct.std::_Deque_base<unsigned int, std::allocator<unsigned int>>::_Deque_impl" }
%"struct.std::_Deque_base<unsigned int, std::allocator<unsigned int>>::_Deque_impl" = type { %"struct.std::_Deque_base<unsigned int, std::allocator<unsigned int>>::_Deque_impl_data" }
%"struct.std::_Deque_base<unsigned int, std::allocator<unsigned int>>::_Deque_impl_data" = type { ptr, i64, %"struct.std::_Deque_iterator.41", %"struct.std::_Deque_iterator.41" }
%"struct.std::_Deque_iterator.41" = type { ptr, ptr, ptr, ptr }

; Function Attrs: mustprogress nounwind uwtable
define linkonce_odr void @_ZNSt15__new_allocatorIjE10deallocateEPjm(ptr noundef nonnull align 1 dereferenceable(1) %0, ptr noundef %1, i64 noundef %2) #3 comdat align 2 {
  %4 = alloca ptr, align 8
  %5 = alloca ptr, align 8
  %6 = alloca i64, align 8
  store ptr %0, ptr %4, align 8, !tbaa !144
  store ptr %1, ptr %5, align 8, !tbaa !105
  store i64 %2, ptr %6, align 8, !tbaa !103
  %7 = load ptr, ptr %5, align 8, !tbaa !105
  %8 = load i64, ptr %6, align 8, !tbaa !103
  %9 = mul i64 %8, 4
  call void @_ZdlPvm(ptr noundef %7, i64 noundef %9) #17
  ret void
}

; Function Attrs: alwaysinline mustprogress uwtable
define linkonce_odr void @_ZNSaIjE10deallocateEPjm(ptr noundef nonnull align 1 dereferenceable(1) %0, ptr noundef %1, i64 noundef %2) #8 comdat align 2 {
  %4 = alloca ptr, align 8
  %5 = alloca ptr, align 8
  %6 = alloca i64, align 8
  store ptr %0, ptr %4, align 8, !tbaa !140
  store ptr %1, ptr %5, align 8, !tbaa !105
  store i64 %2, ptr %6, align 8, !tbaa !103
  %7 = load ptr, ptr %4, align 8
  %8 = load ptr, ptr %5, align 8, !tbaa !105
  %9 = load i64, ptr %6, align 8, !tbaa !103
  call void @_ZNSt15__new_allocatorIjE10deallocateEPjm(ptr noundef nonnull align 1 dereferenceable(1) %7, ptr noundef %8, i64 noundef %9)
  ret void
}

; Function Attrs: mustprogress nounwind uwtable
define linkonce_odr noundef i64 @_ZNSt15_Deque_iteratorIjRjPjE14_S_buffer_sizeEv() #3 comdat align 2 {
  %1 = call noundef i64 @_ZSt16__deque_buf_sizem(i64 noundef 4)
  ret i64 %1
}

; Function Attrs: mustprogress uwtable
define linkonce_odr void @_ZNSt16allocator_traitsISaIjEE10deallocateERS0_Pjm(ptr noundef nonnull align 1 dereferenceable(1) %0, ptr noundef %1, i64 noundef %2) #0 comdat align 2 {
  %4 = alloca ptr, align 8
  %5 = alloca ptr, align 8
  %6 = alloca i64, align 8
  store ptr %0, ptr %4, align 8, !tbaa !140
  store ptr %1, ptr %5, align 8, !tbaa !105
  store i64 %2, ptr %6, align 8, !tbaa !103
  %7 = load ptr, ptr %4, align 8, !tbaa !140
  %8 = load ptr, ptr %5, align 8, !tbaa !105
  %9 = load i64, ptr %6, align 8, !tbaa !103
  call void @_ZNSaIjE10deallocateEPjm(ptr noundef nonnull align 1 dereferenceable(1) %7, ptr noundef %8, i64 noundef %9)
  ret void
}

; Function Attrs: inlinehint mustprogress nounwind uwtable
define linkonce_odr noundef i64 @_ZSt16__deque_buf_sizem(i64 noundef %0) #6 comdat {
  %2 = alloca i64, align 8
  store i64 %0, ptr %2, align 8, !tbaa !103
  %3 = load i64, ptr %2, align 8, !tbaa !103
  %4 = icmp ult i64 %3, 512
  br i1 %4, label %5, label %8

5:                                                ; preds = %1
  %6 = load i64, ptr %2, align 8, !tbaa !103
  %7 = udiv i64 512, %6
  br label %9

8:                                                ; preds = %1
  br label %9

9:                                                ; preds = %8, %5
  %10 = phi i64 [ %7, %5 ], [ 1, %8 ]
  ret i64 %10
}

; Function Attrs: mustprogress nounwind uwtable
define linkonce_odr void @_ZNSt15_Deque_iteratorIjRjPjE11_M_set_nodeEPS1_(ptr noundef nonnull align 8 dereferenceable(32) %0, ptr noundef %1) #3 comdat align 2 {
  %3 = alloca ptr, align 8
  %4 = alloca ptr, align 8
  store ptr %0, ptr %3, align 8, !tbaa !113
  store ptr %1, ptr %4, align 8, !tbaa !137
  %5 = load ptr, ptr %3, align 8
  %6 = load ptr, ptr %4, align 8, !tbaa !137
  %7 = getelementptr inbounds nuw %"struct.std::_Deque_iterator.41", ptr %5, i32 0, i32 3
  store ptr %6, ptr %7, align 8, !tbaa !122
  %8 = load ptr, ptr %4, align 8, !tbaa !137
  %9 = load ptr, ptr %8, align 8, !tbaa !105
  %10 = getelementptr inbounds nuw %"struct.std::_Deque_iterator.41", ptr %5, i32 0, i32 1
  store ptr %9, ptr %10, align 8, !tbaa !118
  %11 = getelementptr inbounds nuw %"struct.std::_Deque_iterator.41", ptr %5, i32 0, i32 1
  %12 = load ptr, ptr %11, align 8, !tbaa !118
  %13 = call noundef i64 @_ZNSt15_Deque_iteratorIjRjPjE14_S_buffer_sizeEv() #15
  %14 = getelementptr inbounds i32, ptr %12, i64 %13
  %15 = getelementptr inbounds nuw %"struct.std::_Deque_iterator.41", ptr %5, i32 0, i32 2
  store ptr %14, ptr %15, align 8, !tbaa !120
  ret void
}

; Function Attrs: mustprogress nounwind uwtable
define linkonce_odr void @_ZNSt11_Deque_baseIjSaIjEE18_M_deallocate_nodeEPj(ptr noundef nonnull align 8 dereferenceable(80) %0, ptr noundef %1) #3 comdat align 2 personality ptr @__gxx_personality_v0 {
  %3 = alloca ptr, align 8
  %4 = alloca ptr, align 8
  store ptr %0, ptr %3, align 8, !tbaa !131
  store ptr %1, ptr %4, align 8, !tbaa !105
  %5 = load ptr, ptr %3, align 8
  %6 = getelementptr inbounds nuw %"class.std::_Deque_base.37", ptr %5, i32 0, i32 0
  %7 = load ptr, ptr %4, align 8, !tbaa !105
  %8 = call noundef i64 @_ZSt16__deque_buf_sizem(i64 noundef 4)
  invoke void @_ZNSt16allocator_traitsISaIjEE10deallocateERS0_Pjm(ptr noundef nonnull align 1 dereferenceable(1) %6, ptr noundef %7, i64 noundef %8)
          to label %9 unwind label %10

9:                                                ; preds = %2
  ret void

10:                                               ; preds = %2
  %11 = landingpad { ptr, i32 }
          catch ptr null
  %12 = extractvalue { ptr, i32 } %11, 0
  call void @__clang_call_terminate(ptr %12) #16
  unreachable
}

; Function Attrs: inlinehint mustprogress nounwind uwtable
define linkonce_odr void @_ZSt10destroy_atIjEvPT_(ptr noundef %0) #6 comdat {
  %2 = alloca ptr, align 8
  store ptr %0, ptr %2, align 8, !tbaa !105
  ret void
}

; Function Attrs: mustprogress nounwind uwtable
define linkonce_odr void @_ZNSt15_Deque_iteratorIjRjPjEC2ERKS2_(ptr noundef nonnull align 8 dereferenceable(32) %0, ptr noundef nonnull align 8 dereferenceable(32) %1) unnamed_addr #3 comdat align 2 {
  %3 = alloca ptr, align 8
  %4 = alloca ptr, align 8
  store ptr %0, ptr %3, align 8, !tbaa !113
  store ptr %1, ptr %4, align 8, !tbaa !113
  %5 = load ptr, ptr %3, align 8
  %6 = getelementptr inbounds nuw %"struct.std::_Deque_iterator.41", ptr %5, i32 0, i32 0
  %7 = load ptr, ptr %4, align 8, !tbaa !113
  %8 = getelementptr inbounds nuw %"struct.std::_Deque_iterator.41", ptr %7, i32 0, i32 0
  %9 = load ptr, ptr %8, align 8, !tbaa !115
  store ptr %9, ptr %6, align 8, !tbaa !115
  %10 = getelementptr inbounds nuw %"struct.std::_Deque_iterator.41", ptr %5, i32 0, i32 1
  %11 = load ptr, ptr %4, align 8, !tbaa !113
  %12 = getelementptr inbounds nuw %"struct.std::_Deque_iterator.41", ptr %11, i32 0, i32 1
  %13 = load ptr, ptr %12, align 8, !tbaa !118
  store ptr %13, ptr %10, align 8, !tbaa !118
  %14 = getelementptr inbounds nuw %"struct.std::_Deque_iterator.41", ptr %5, i32 0, i32 2
  %15 = load ptr, ptr %4, align 8, !tbaa !113
  %16 = getelementptr inbounds nuw %"struct.std::_Deque_iterator.41", ptr %15, i32 0, i32 2
  %17 = load ptr, ptr %16, align 8, !tbaa !120
  store ptr %17, ptr %14, align 8, !tbaa !120
  %18 = getelementptr inbounds nuw %"struct.std::_Deque_iterator.41", ptr %5, i32 0, i32 3
  %19 = load ptr, ptr %4, align 8, !tbaa !113
  %20 = getelementptr inbounds nuw %"struct.std::_Deque_iterator.41", ptr %19, i32 0, i32 3
  %21 = load ptr, ptr %20, align 8, !tbaa !122
  store ptr %21, ptr %18, align 8, !tbaa !122
  ret void
}

; Function Attrs: noinline noreturn nounwind uwtable
define linkonce_odr hidden void @__clang_call_terminate(ptr noundef %0) #7 comdat {
  %2 = call ptr @__cxa_begin_catch(ptr %0) #15
  call void @_ZSt9terminatev() #16
  unreachable
}

; Function Attrs: mustprogress nounwind uwtable
define linkonce_odr void @_ZNSt5dequeIjSaIjEE16_M_pop_front_auxEv(ptr noundef nonnull align 8 dereferenceable(80) %0) #3 comdat align 2 {
  %2 = alloca ptr, align 8
  store ptr %0, ptr %2, align 8, !tbaa !101
  %3 = load ptr, ptr %2, align 8
  %4 = call noundef nonnull align 1 dereferenceable(1) ptr @_ZNSt11_Deque_baseIjSaIjEE19_M_get_Tp_allocatorEv(ptr noundef nonnull align 8 dereferenceable(80) %3) #15
  %5 = getelementptr inbounds nuw %"class.std::_Deque_base.37", ptr %3, i32 0, i32 0
  %6 = getelementptr inbounds nuw %"struct.std::_Deque_base<unsigned int, std::allocator<unsigned int>>::_Deque_impl_data", ptr %5, i32 0, i32 2
  %7 = getelementptr inbounds nuw %"struct.std::_Deque_iterator.41", ptr %6, i32 0, i32 0
  %8 = load ptr, ptr %7, align 8, !tbaa !109
  call void @_ZNSt16allocator_traitsISaIjEE7destroyIjEEvRS0_PT_(ptr noundef nonnull align 1 dereferenceable(1) %4, ptr noundef %8) #15
  %9 = getelementptr inbounds nuw %"class.std::_Deque_base.37", ptr %3, i32 0, i32 0
  %10 = getelementptr inbounds nuw %"struct.std::_Deque_base<unsigned int, std::allocator<unsigned int>>::_Deque_impl_data", ptr %9, i32 0, i32 2
  %11 = getelementptr inbounds nuw %"struct.std::_Deque_iterator.41", ptr %10, i32 0, i32 1
  %12 = load ptr, ptr %11, align 8, !tbaa !138
  call void @_ZNSt11_Deque_baseIjSaIjEE18_M_deallocate_nodeEPj(ptr noundef nonnull align 8 dereferenceable(80) %3, ptr noundef %12) #15
  %13 = getelementptr inbounds nuw %"class.std::_Deque_base.37", ptr %3, i32 0, i32 0
  %14 = getelementptr inbounds nuw %"struct.std::_Deque_base<unsigned int, std::allocator<unsigned int>>::_Deque_impl_data", ptr %13, i32 0, i32 2
  %15 = getelementptr inbounds nuw %"class.std::_Deque_base.37", ptr %3, i32 0, i32 0
  %16 = getelementptr inbounds nuw %"struct.std::_Deque_base<unsigned int, std::allocator<unsigned int>>::_Deque_impl_data", ptr %15, i32 0, i32 2
  %17 = getelementptr inbounds nuw %"struct.std::_Deque_iterator.41", ptr %16, i32 0, i32 3
  %18 = load ptr, ptr %17, align 8, !tbaa !153
  %19 = getelementptr inbounds ptr, ptr %18, i64 1
  call void @_ZNSt15_Deque_iteratorIjRjPjE11_M_set_nodeEPS1_(ptr noundef nonnull align 8 dereferenceable(32) %14, ptr noundef %19) #15
  %20 = getelementptr inbounds nuw %"class.std::_Deque_base.37", ptr %3, i32 0, i32 0
  %21 = getelementptr inbounds nuw %"struct.std::_Deque_base<unsigned int, std::allocator<unsigned int>>::_Deque_impl_data", ptr %20, i32 0, i32 2
  %22 = getelementptr inbounds nuw %"struct.std::_Deque_iterator.41", ptr %21, i32 0, i32 1
  %23 = load ptr, ptr %22, align 8, !tbaa !138
  %24 = getelementptr inbounds nuw %"class.std::_Deque_base.37", ptr %3, i32 0, i32 0
  %25 = getelementptr inbounds nuw %"struct.std::_Deque_base<unsigned int, std::allocator<unsigned int>>::_Deque_impl_data", ptr %24, i32 0, i32 2
  %26 = getelementptr inbounds nuw %"struct.std::_Deque_iterator.41", ptr %25, i32 0, i32 0
  store ptr %23, ptr %26, align 8, !tbaa !109
  ret void
}

; Function Attrs: mustprogress nounwind uwtable
define linkonce_odr void @_ZNSt16allocator_traitsISaIjEE7destroyIjEEvRS0_PT_(ptr noundef nonnull align 1 dereferenceable(1) %0, ptr noundef %1) #3 comdat align 2 personality ptr @__gxx_personality_v0 {
  %3 = alloca ptr, align 8
  %4 = alloca ptr, align 8
  store ptr %0, ptr %3, align 8, !tbaa !140
  store ptr %1, ptr %4, align 8, !tbaa !105
  %5 = load ptr, ptr %4, align 8, !tbaa !105
  invoke void @_ZSt10destroy_atIjEvPT_(ptr noundef %5)
          to label %6 unwind label %7

6:                                                ; preds = %2
  ret void

7:                                                ; preds = %2
  %8 = landingpad { ptr, i32 }
          catch ptr null
  %9 = extractvalue { ptr, i32 } %8, 0
  call void @__clang_call_terminate(ptr %9) #16
  unreachable
}

; Function Attrs: mustprogress nounwind uwtable
define linkonce_odr noundef nonnull align 1 dereferenceable(1) ptr @_ZNSt11_Deque_baseIjSaIjEE19_M_get_Tp_allocatorEv(ptr noundef nonnull align 8 dereferenceable(80) %0) #3 comdat align 2 {
  %2 = alloca ptr, align 8
  store ptr %0, ptr %2, align 8, !tbaa !131
  %3 = load ptr, ptr %2, align 8
  %4 = getelementptr inbounds nuw %"class.std::_Deque_base.37", ptr %3, i32 0, i32 0
  ret ptr %4
}

; Function Attrs: mustprogress nounwind uwtable
define linkonce_odr noundef nonnull align 4 dereferenceable(4) ptr @_ZNKSt15_Deque_iteratorIjRjPjEdeEv(ptr noundef nonnull align 8 dereferenceable(32) %0) #3 comdat align 2 {
  %2 = alloca ptr, align 8
  store ptr %0, ptr %2, align 8, !tbaa !113
  %3 = load ptr, ptr %2, align 8
  %4 = getelementptr inbounds nuw %"struct.std::_Deque_iterator.41", ptr %3, i32 0, i32 0
  %5 = load ptr, ptr %4, align 8, !tbaa !115
  ret ptr %5
}

; Function Attrs: mustprogress nounwind uwtable
define linkonce_odr void @_ZNSt5dequeIjSaIjEE5beginEv(ptr dead_on_unwind noalias writable sret(%"struct.std::_Deque_iterator.41") align 8 %0, ptr noundef nonnull align 8 dereferenceable(80) %1) #3 comdat align 2 {
  %3 = alloca ptr, align 8
  %4 = alloca ptr, align 8
  store ptr %0, ptr %3, align 8
  store ptr %1, ptr %4, align 8, !tbaa !101
  %5 = load ptr, ptr %4, align 8
  %6 = getelementptr inbounds nuw %"class.std::_Deque_base.37", ptr %5, i32 0, i32 0
  %7 = getelementptr inbounds nuw %"struct.std::_Deque_base<unsigned int, std::allocator<unsigned int>>::_Deque_impl_data", ptr %6, i32 0, i32 2
  call void @_ZNSt15_Deque_iteratorIjRjPjEC2ERKS2_(ptr noundef nonnull align 8 dereferenceable(32) %0, ptr noundef nonnull align 8 dereferenceable(32) %7) #15
  ret void
}

; Function Attrs: mustprogress nounwind uwtable
define linkonce_odr void @_ZNSt5dequeIjSaIjEE9pop_frontEv(ptr noundef nonnull align 8 dereferenceable(80) %0) #3 comdat align 2 personality ptr @__gxx_personality_v0 {
  %2 = alloca ptr, align 8
  store ptr %0, ptr %2, align 8, !tbaa !101
  %3 = load ptr, ptr %2, align 8
  %4 = getelementptr inbounds nuw %"class.std::_Deque_base.37", ptr %3, i32 0, i32 0
  %5 = getelementptr inbounds nuw %"struct.std::_Deque_base<unsigned int, std::allocator<unsigned int>>::_Deque_impl_data", ptr %4, i32 0, i32 2
  %6 = getelementptr inbounds nuw %"struct.std::_Deque_iterator.41", ptr %5, i32 0, i32 0
  %7 = load ptr, ptr %6, align 8, !tbaa !109
  %8 = getelementptr inbounds nuw %"class.std::_Deque_base.37", ptr %3, i32 0, i32 0
  %9 = getelementptr inbounds nuw %"struct.std::_Deque_base<unsigned int, std::allocator<unsigned int>>::_Deque_impl_data", ptr %8, i32 0, i32 2
  %10 = getelementptr inbounds nuw %"struct.std::_Deque_iterator.41", ptr %9, i32 0, i32 2
  %11 = load ptr, ptr %10, align 8, !tbaa !110
  %12 = getelementptr inbounds i32, ptr %11, i64 -1
  %13 = icmp ne ptr %7, %12
  br i1 %13, label %14, label %25

14:                                               ; preds = %1
  %15 = call noundef nonnull align 1 dereferenceable(1) ptr @_ZNSt11_Deque_baseIjSaIjEE19_M_get_Tp_allocatorEv(ptr noundef nonnull align 8 dereferenceable(80) %3) #15
  %16 = getelementptr inbounds nuw %"class.std::_Deque_base.37", ptr %3, i32 0, i32 0
  %17 = getelementptr inbounds nuw %"struct.std::_Deque_base<unsigned int, std::allocator<unsigned int>>::_Deque_impl_data", ptr %16, i32 0, i32 2
  %18 = getelementptr inbounds nuw %"struct.std::_Deque_iterator.41", ptr %17, i32 0, i32 0
  %19 = load ptr, ptr %18, align 8, !tbaa !109
  call void @_ZNSt16allocator_traitsISaIjEE7destroyIjEEvRS0_PT_(ptr noundef nonnull align 1 dereferenceable(1) %15, ptr noundef %19) #15
  %20 = getelementptr inbounds nuw %"class.std::_Deque_base.37", ptr %3, i32 0, i32 0
  %21 = getelementptr inbounds nuw %"struct.std::_Deque_base<unsigned int, std::allocator<unsigned int>>::_Deque_impl_data", ptr %20, i32 0, i32 2
  %22 = getelementptr inbounds nuw %"struct.std::_Deque_iterator.41", ptr %21, i32 0, i32 0
  %23 = load ptr, ptr %22, align 8, !tbaa !109
  %24 = getelementptr inbounds nuw i32, ptr %23, i32 1
  store ptr %24, ptr %22, align 8, !tbaa !109
  br label %27

25:                                               ; preds = %1
  invoke void @_ZNSt5dequeIjSaIjEE16_M_pop_front_auxEv(ptr noundef nonnull align 8 dereferenceable(80) %3)
          to label %26 unwind label %28

26:                                               ; preds = %25
  br label %27

27:                                               ; preds = %26, %14
  ret void

28:                                               ; preds = %25
  %29 = landingpad { ptr, i32 }
          catch ptr null
  %30 = extractvalue { ptr, i32 } %29, 0
  call void @__clang_call_terminate(ptr %30) #16
  unreachable
}

; Function Attrs: mustprogress nounwind uwtable
define linkonce_odr noundef nonnull align 4 dereferenceable(4) ptr @_ZNSt5dequeIjSaIjEE5frontEv(ptr noundef nonnull align 8 dereferenceable(80) %0) #3 comdat align 2 {
  %2 = alloca ptr, align 8
  %3 = alloca %"struct.std::_Deque_iterator.41", align 8
  store ptr %0, ptr %2, align 8, !tbaa !101
  %4 = load ptr, ptr %2, align 8
  call void @llvm.lifetime.start.p0(i64 32, ptr %3) #15
  call void @_ZNSt5dequeIjSaIjEE5beginEv(ptr dead_on_unwind writable sret(%"struct.std::_Deque_iterator.41") align 8 %3, ptr noundef nonnull align 8 dereferenceable(80) %4) #15
  %5 = call noundef nonnull align 4 dereferenceable(4) ptr @_ZNKSt15_Deque_iteratorIjRjPjEdeEv(ptr noundef nonnull align 8 dereferenceable(32) %3) #15
  call void @llvm.lifetime.end.p0(i64 32, ptr %3) #15
  ret ptr %5
}

; Function Attrs: mustprogress nounwind uwtable
define noundef i32 @_ZN5tsi_t9recv_wordEv(ptr noundef nonnull align 8 dereferenceable(912) %0) #3 align 2 {
  %2 = alloca ptr, align 8
  %3 = alloca i32, align 4
  store ptr %0, ptr %2, align 8, !tbaa !7
  %4 = load ptr, ptr %2, align 8
  call void @llvm.lifetime.start.p0(i64 4, ptr %3) #15
  %5 = getelementptr inbounds nuw %class.tsi_t, ptr %4, i32 0, i32 3
  %6 = call noundef nonnull align 4 dereferenceable(4) ptr @_ZNSt5dequeIjSaIjEE5frontEv(ptr noundef nonnull align 8 dereferenceable(80) %5) #15
  %7 = load i32, ptr %6, align 4, !tbaa !96
  store i32 %7, ptr %3, align 4, !tbaa !96
  %8 = getelementptr inbounds nuw %class.tsi_t, ptr %4, i32 0, i32 3
  call void @_ZNSt5dequeIjSaIjEE9pop_frontEv(ptr noundef nonnull align 8 dereferenceable(80) %8) #15
  %9 = load i32, ptr %3, align 4, !tbaa !96
  call void @llvm.lifetime.end.p0(i64 4, ptr %3) #15
  ret i32 %9
}