; Function Attrs: mustprogress nounwind uwtable
define noundef i32 @_ZN5tsi_t9recv_wordEv(ptr noundef nonnull align 8 captures(none) dereferenceable(912) %0) local_unnamed_addr #4 align 2 personality ptr @__gxx_personality_v0 {
  %2 = getelementptr inbounds nuw i8, ptr %0, i64 768
  %3 = load ptr, ptr %2, align 8, !tbaa !106, !noalias !125
  %4 = load i32, ptr %3, align 4, !tbaa !101
  %5 = getelementptr inbounds nuw i8, ptr %0, i64 784
  %6 = load ptr, ptr %5, align 8, !tbaa !108
  %7 = getelementptr inbounds i8, ptr %6, i64 -4
  %.not.i = icmp eq ptr %3, %7
  br i1 %.not.i, label %10, label %8

8:                                                ; preds = %1
  %9 = getelementptr inbounds nuw i8, ptr %3, i64 4
  br label %_ZNSt5dequeIjSaIjEE9pop_frontEv.exit

10:                                               ; preds = %1
  %11 = getelementptr inbounds nuw i8, ptr %0, i64 776
  %12 = load ptr, ptr %11, align 8, !tbaa !109
  tail call void @_ZdlPvm(ptr noundef %12, i64 noundef 512) #18
  %13 = getelementptr inbounds nuw i8, ptr %0, i64 792
  %14 = load ptr, ptr %13, align 8, !tbaa !96
  %15 = getelementptr inbounds nuw i8, ptr %14, i64 8
  store ptr %15, ptr %13, align 8, !tbaa !110
  %16 = load ptr, ptr %15, align 8, !tbaa !98
  store ptr %16, ptr %11, align 8, !tbaa !111
  %17 = getelementptr inbounds nuw i8, ptr %16, i64 512
  store ptr %17, ptr %5, align 8, !tbaa !112
  br label %_ZNSt5dequeIjSaIjEE9pop_frontEv.exit

_ZNSt5dequeIjSaIjEE9pop_frontEv.exit:             ; preds = %8, %10
  %storemerge.i = phi ptr [ %9, %8 ], [ %16, %10 ]
  store ptr %storemerge.i, ptr %2, align 8, !tbaa !113
  ret i32 %4
}